; Function Attrs: nounwind sspstrong uwtable
define internal range(i64 1, 8589934592) i64 @p_uid_exchange(i64 %0) #1 {
  %.b.i = load i1, ptr @under_uid_switch, align 4
  br i1 %.b.i, label %2, label %check_uid_switch.exit

2:                                                ; preds = %1
  %3 = load i64, ptr @rb_eRuntimeError, align 8, !tbaa !43
  tail call void (i64, ptr, ...) @rb_raise(i64 noundef %3, ptr noundef nonnull @.str.228) #29
  unreachable

check_uid_switch.exit:                            ; preds = %1
  %4 = tail call i32 @getuid() #27
  %5 = tail call i32 @geteuid() #27
  %6 = tail call i32 @setresuid(i32 noundef %5, i32 noundef %4, i32 noundef %4) #27
  %7 = icmp slt i32 %6, 0
  br i1 %7, label %8, label %11

8:                                                ; preds = %check_uid_switch.exit
  %9 = tail call ptr @rb_errno_ptr() #27
  %10 = load i32, ptr %9, align 4, !tbaa !60
  tail call void @rb_syserr_fail(i32 noundef %10, ptr noundef null) #29
  unreachable

11:                                               ; preds = %check_uid_switch.exit
  store i32 %4, ptr @SAVED_USER_ID, align 4, !tbaa !60
  %12 = zext i32 %4 to i64
  %13 = shl nuw nsw i64 %12, 1
  %14 = or disjoint i64 %13, 1
  ret i64 %14
}